; ModuleID = '21/757.c'
source_filename = "21/757.c"
target datalayout = "e-m:e-p270:32:32-p271:32:32-p272:64:64-i64:64-f80:128-n8:16:32:64-S128"
target triple = "x86_64-pc-linux-gnu"

@.str = private unnamed_addr constant [3 x i8] c"%d\00", align 1
@.str.1 = private unnamed_addr constant [6 x i8] c"%d,%d\00", align 1

; Function Attrs: noinline nounwind uwtable
define dso_local i32 @main() #0 {
  %1 = alloca i32, align 4
  %2 = alloca [300 x i32], align 16
  %3 = alloca i32, align 4
  %4 = alloca i32, align 4
  %5 = alloca i32, align 4
  %6 = alloca i32, align 4
  %7 = alloca i32, align 4
  %8 = alloca float, align 4
  %9 = alloca float, align 4
  store i32 0, i32* %1, align 4
  store i32 0, i32* %6, align 4
  store float 0.000000e+00, float* %9, align 4
  %10 = call i32 (i8*, ...) @__isoc99_scanf(i8* getelementptr inbounds ([3 x i8], [3 x i8]* @.str, i64 0, i64 0), i32* %3)
  store i32 0, i32* %4, align 4
  br label %11

11:                                               ; preds = %26, %0
  %12 = load i32, i32* %4, align 4
  %13 = load i32, i32* %3, align 4
  %14 = icmp slt i32 %12, %13
  br i1 %14, label %15, label %29

15:                                               ; preds = %11
  %16 = load i32, i32* %4, align 4
  %17 = sext i32 %16 to i64
  %18 = getelementptr inbounds [300 x i32], [300 x i32]* %2, i64 0, i64 %17
  %19 = call i32 (i8*, ...) @__isoc99_scanf(i8* getelementptr inbounds ([3 x i8], [3 x i8]* @.str, i64 0, i64 0), i32* %18)
  %20 = load i32, i32* %6, align 4
  %21 = load i32, i32* %4, align 4
  %22 = sext i32 %21 to i64
  %23 = getelementptr inbounds [300 x i32], [300 x i32]* %2, i64 0, i64 %22
  %24 = load i32, i32* %23, align 4
  %25 = add nsw i32 %20, %24
  store i32 %25, i32* %6, align 4
  br label %26

26:                                               ; preds = %15
  %27 = load i32, i32* %4, align 4
  %28 = add nsw i32 %27, 1
  store i32 %28, i32* %4, align 4
  br label %11

29:                                               ; preds = %11
  %30 = load i32, i32* %6, align 4
  %31 = sitofp i32 %30 to float
  %32 = load i32, i32* %3, align 4
  %33 = sitofp i32 %32 to float
  %34 = fdiv float %31, %33
  store float %34, float* %8, align 4
  store i32 0, i32* %4, align 4
  br label %35

35:                                               ; preds = %82, %29
  %36 = load i32, i32* %4, align 4
  %37 = load i32, i32* %3, align 4
  %38 = sub nsw i32 %37, 1
  %39 = icmp slt i32 %36, %38
  br i1 %39, label %40, label %85

40:                                               ; preds = %35
  store i32 0, i32* %5, align 4
  br label %41

41:                                               ; preds = %78, %40
  %42 = load i32, i32* %5, align 4
  %43 = load i32, i32* %3, align 4
  %44 = sub nsw i32 %43, 1
  %45 = load i32, i32* %4, align 4
  %46 = sub nsw i32 %44, %45
  %47 = icmp slt i32 %42, %46
  br i1 %47, label %48, label %81

48:                                               ; preds = %41
  %49 = load i32, i32* %5, align 4
  %50 = sext i32 %49 to i64
  %51 = getelementptr inbounds [300 x i32], [300 x i32]* %2, i64 0, i64 %50
  %52 = load i32, i32* %51, align 4
  %53 = load i32, i32* %5, align 4
  %54 = add nsw i32 %53, 1
  %55 = sext i32 %54 to i64
  %56 = getelementptr inbounds [300 x i32], [300 x i32]* %2, i64 0, i64 %55
  %57 = load i32, i32* %56, align 4
  %58 = icmp sgt i32 %52, %57
  br i1 %58, label %59, label %77

59:                                               ; preds = %48
  %60 = load i32, i32* %5, align 4
  %61 = sext i32 %60 to i64
  %62 = getelementptr inbounds [300 x i32], [300 x i32]* %2, i64 0, i64 %61
  %63 = load i32, i32* %62, align 4
  store i32 %63, i32* %7, align 4
  %64 = load i32, i32* %5, align 4
  %65 = add nsw i32 %64, 1
  %66 = sext i32 %65 to i64
  %67 = getelementptr inbounds [300 x i32], [300 x i32]* %2, i64 0, i64 %66
  %68 = load i32, i32* %67, align 4
  %69 = load i32, i32* %5, align 4
  %70 = sext i32 %69 to i64
  %71 = getelementptr inbounds [300 x i32], [300 x i32]* %2, i64 0, i64 %70
  store i32 %68, i32* %71, align 4
  %72 = load i32, i32* %7, align 4
  %73 = load i32, i32* %5, align 4
  %74 = add nsw i32 %73, 1
  %75 = sext i32 %74 to i64
  %76 = getelementptr inbounds [300 x i32], [300 x i32]* %2, i64 0, i64 %75
  store i32 %72, i32* %76, align 4
  br label %77

77:                                               ; preds = %59, %48
  br label %78

78:                                               ; preds = %77
  %79 = load i32, i32* %5, align 4
  %80 = add nsw i32 %79, 1
  store i32 %80, i32* %5, align 4
  br label %41

81:                                               ; preds = %41
  br label %82

82:                                               ; preds = %81
  %83 = load i32, i32* %4, align 4
  %84 = add nsw i32 %83, 1
  store i32 %84, i32* %4, align 4
  br label %35

85:                                               ; preds = %35
  %86 = load float, float* %8, align 4
  %87 = getelementptr inbounds [300 x i32], [300 x i32]* %2, i64 0, i64 0
  %88 = load i32, i32* %87, align 16
  %89 = sitofp i32 %88 to float
  %90 = fsub float %86, %89
  %91 = load i32, i32* %3, align 4
  %92 = sub nsw i32 %91, 1
  %93 = sext i32 %92 to i64
  %94 = getelementptr inbounds [300 x i32], [300 x i32]* %2, i64 0, i64 %93
  %95 = load i32, i32* %94, align 4
  %96 = sitofp i32 %95 to float
  %97 = load float, float* %8, align 4
  %98 = fsub float %96, %97
  %99 = fcmp ogt float %90, %98
  br i1 %99, label %100, label %104

100:                                              ; preds = %85
  %101 = getelementptr inbounds [300 x i32], [300 x i32]* %2, i64 0, i64 0
  %102 = load i32, i32* %101, align 16
  %103 = call i32 (i8*, ...) @printf(i8* getelementptr inbounds ([3 x i8], [3 x i8]* @.str, i64 0, i64 0), i32 %102)
  br label %136

104:                                              ; preds = %85
  %105 = load float, float* %8, align 4
  %106 = getelementptr inbounds [300 x i32], [300 x i32]* %2, i64 0, i64 0
  %107 = load i32, i32* %106, align 16
  %108 = sitofp i32 %107 to float
  %109 = fsub float %105, %108
  %110 = load i32, i32* %3, align 4
  %111 = sub nsw i32 %110, 1
  %112 = sext i32 %111 to i64
  %113 = getelementptr inbounds [300 x i32], [300 x i32]* %2, i64 0, i64 %112
  %114 = load i32, i32* %113, align 4
  %115 = sitofp i32 %114 to float
  %116 = load float, float* %8, align 4
  %117 = fsub float %115, %116
  %118 = fcmp olt float %109, %117
  br i1 %118, label %119, label %126

119:                                              ; preds = %104
  %120 = load i32, i32* %3, align 4
  %121 = sub nsw i32 %120, 1
  %122 = sext i32 %121 to i64
  %123 = getelementptr inbounds [300 x i32], [300 x i32]* %2, i64 0, i64 %122
  %124 = load i32, i32* %123, align 4
  %125 = call i32 (i8*, ...) @printf(i8* getelementptr inbounds ([3 x i8], [3 x i8]* @.str, i64 0, i64 0), i32 %124)
  br label %135

126:                                              ; preds = %104
  %127 = getelementptr inbounds [300 x i32], [300 x i32]* %2, i64 0, i64 0
  %128 = load i32, i32* %127, align 16
  %129 = load i32, i32* %3, align 4
  %130 = sub nsw i32 %129, 1
  %131 = sext i32 %130 to i64
  %132 = getelementptr inbounds [300 x i32], [300 x i32]* %2, i64 0, i64 %131
  %133 = load i32, i32* %132, align 4
  %134 = call i32 (i8*, ...) @printf(i8* getelementptr inbounds ([6 x i8], [6 x i8]* @.str.1, i64 0, i64 0), i32 %128, i32 %133)
  br label %135

135:                                              ; preds = %126, %119
  br label %136

136:                                              ; preds = %135, %100
  ret i32 0
}

declare dso_local i32 @__isoc99_scanf(i8*, ...) #1

declare dso_local i32 @printf(i8*, ...) #1


!llvm.module.flags = !{!0}
!llvm.ident = !{!1}

!0 = !{i32 1, !"wchar_size", i32 4}
!1 = !{!"clang version 10.0.0-4ubuntu1 "}
